; ModuleID = '24/2540.c'
source_filename = "24/2540.c"
target datalayout = "e-m:e-p270:32:32-p271:32:32-p272:64:64-i64:64-f80:128-n8:16:32:64-S128"
target triple = "x86_64-pc-linux-gnu"

@.str = private unnamed_addr constant [3 x i8] c"%d\00", align 1
@.str.1 = private unnamed_addr constant [3 x i8] c"%s\00", align 1
@.str.2 = private unnamed_addr constant [7 x i8] c"%s\0A%s\0A\00", align 1
@.str.3 = private unnamed_addr constant [4 x i8] c"%s\0A\00", align 1

; Function Attrs: noinline nounwind uwtable
define dso_local i32 @main() #0 {
  %1 = alloca i32, align 4
  %2 = alloca i32, align 4
  %3 = alloca [200 x i32], align 16
  %4 = alloca [200 x [200 x i8]], align 16
  %5 = alloca i32, align 4
  %6 = alloca i32, align 4
  %7 = alloca i32, align 4
  store i32 0, i32* %1, align 4
  %8 = call i32 (i8*, ...) @__isoc99_scanf(i8* getelementptr inbounds ([3 x i8], [3 x i8]* @.str, i64 0, i64 0), i32* %2)
  store i32 0, i32* %5, align 4
  br label %9

9:                                                ; preds = %28, %0
  %10 = load i32, i32* %5, align 4
  %11 = load i32, i32* %2, align 4
  %12 = icmp slt i32 %10, %11
  br i1 %12, label %13, label %31

13:                                               ; preds = %9
  %14 = load i32, i32* %5, align 4
  %15 = sext i32 %14 to i64
  %16 = getelementptr inbounds [200 x [200 x i8]], [200 x [200 x i8]]* %4, i64 0, i64 %15
  %17 = getelementptr inbounds [200 x i8], [200 x i8]* %16, i64 0, i64 0
  %18 = call i32 (i8*, ...) @__isoc99_scanf(i8* getelementptr inbounds ([3 x i8], [3 x i8]* @.str.1, i64 0, i64 0), i8* %17)
  %19 = load i32, i32* %5, align 4
  %20 = sext i32 %19 to i64
  %21 = getelementptr inbounds [200 x [200 x i8]], [200 x [200 x i8]]* %4, i64 0, i64 %20
  %22 = getelementptr inbounds [200 x i8], [200 x i8]* %21, i64 0, i64 0
  %23 = call i64 @strlen(i8* %22) #3
  %24 = trunc i64 %23 to i32
  %25 = load i32, i32* %5, align 4
  %26 = sext i32 %25 to i64
  %27 = getelementptr inbounds [200 x i32], [200 x i32]* %3, i64 0, i64 %26
  store i32 %24, i32* %27, align 4
  br label %28

28:                                               ; preds = %13
  %29 = load i32, i32* %5, align 4
  %30 = add nsw i32 %29, 1
  store i32 %30, i32* %5, align 4
  br label %9

31:                                               ; preds = %9
  %32 = getelementptr inbounds [200 x i32], [200 x i32]* %3, i64 0, i64 0
  %33 = load i32, i32* %32, align 16
  store i32 %33, i32* %6, align 4
  %34 = getelementptr inbounds [200 x i32], [200 x i32]* %3, i64 0, i64 0
  %35 = load i32, i32* %34, align 16
  store i32 %35, i32* %7, align 4
  store i32 1, i32* %5, align 4
  br label %36

36:                                               ; preds = %65, %31
  %37 = load i32, i32* %5, align 4
  %38 = load i32, i32* %2, align 4
  %39 = icmp slt i32 %37, %38
  br i1 %39, label %40, label %68

40:                                               ; preds = %36
  %41 = load i32, i32* %6, align 4
  %42 = load i32, i32* %5, align 4
  %43 = sext i32 %42 to i64
  %44 = getelementptr inbounds [200 x i32], [200 x i32]* %3, i64 0, i64 %43
  %45 = load i32, i32* %44, align 4
  %46 = icmp slt i32 %41, %45
  br i1 %46, label %47, label %52

47:                                               ; preds = %40
  %48 = load i32, i32* %5, align 4
  %49 = sext i32 %48 to i64
  %50 = getelementptr inbounds [200 x i32], [200 x i32]* %3, i64 0, i64 %49
  %51 = load i32, i32* %50, align 4
  store i32 %51, i32* %6, align 4
  br label %52

52:                                               ; preds = %47, %40
  %53 = load i32, i32* %7, align 4
  %54 = load i32, i32* %5, align 4
  %55 = sext i32 %54 to i64
  %56 = getelementptr inbounds [200 x i32], [200 x i32]* %3, i64 0, i64 %55
  %57 = load i32, i32* %56, align 4
  %58 = icmp sgt i32 %53, %57
  br i1 %58, label %59, label %64

59:                                               ; preds = %52
  %60 = load i32, i32* %5, align 4
  %61 = sext i32 %60 to i64
  %62 = getelementptr inbounds [200 x i32], [200 x i32]* %3, i64 0, i64 %61
  %63 = load i32, i32* %62, align 4
  store i32 %63, i32* %7, align 4
  br label %64

64:                                               ; preds = %59, %52
  br label %65

65:                                               ; preds = %64
  %66 = load i32, i32* %5, align 4
  %67 = add nsw i32 %66, 1
  store i32 %67, i32* %5, align 4
  br label %36

68:                                               ; preds = %36
  %69 = load i32, i32* %6, align 4
  %70 = load i32, i32* %7, align 4
  %71 = icmp eq i32 %69, %70
  br i1 %71, label %72, label %78

72:                                               ; preds = %68
  %73 = getelementptr inbounds [200 x [200 x i8]], [200 x [200 x i8]]* %4, i64 0, i64 0
  %74 = getelementptr inbounds [200 x i8], [200 x i8]* %73, i64 0, i64 0
  %75 = getelementptr inbounds [200 x [200 x i8]], [200 x [200 x i8]]* %4, i64 0, i64 0
  %76 = getelementptr inbounds [200 x i8], [200 x i8]* %75, i64 0, i64 0
  %77 = call i32 (i8*, ...) @printf(i8* getelementptr inbounds ([7 x i8], [7 x i8]* @.str.2, i64 0, i64 0), i8* %74, i8* %76)
  br label %123

78:                                               ; preds = %68
  store i32 0, i32* %5, align 4
  br label %79

79:                                               ; preds = %97, %78
  %80 = load i32, i32* %5, align 4
  %81 = load i32, i32* %2, align 4
  %82 = icmp slt i32 %80, %81
  br i1 %82, label %83, label %100

83:                                               ; preds = %79
  %84 = load i32, i32* %6, align 4
  %85 = load i32, i32* %5, align 4
  %86 = sext i32 %85 to i64
  %87 = getelementptr inbounds [200 x i32], [200 x i32]* %3, i64 0, i64 %86
  %88 = load i32, i32* %87, align 4
  %89 = icmp eq i32 %84, %88
  br i1 %89, label %90, label %96

90:                                               ; preds = %83
  %91 = load i32, i32* %5, align 4
  %92 = sext i32 %91 to i64
  %93 = getelementptr inbounds [200 x [200 x i8]], [200 x [200 x i8]]* %4, i64 0, i64 %92
  %94 = getelementptr inbounds [200 x i8], [200 x i8]* %93, i64 0, i64 0
  %95 = call i32 (i8*, ...) @printf(i8* getelementptr inbounds ([4 x i8], [4 x i8]* @.str.3, i64 0, i64 0), i8* %94)
  br label %100

96:                                               ; preds = %83
  br label %97

97:                                               ; preds = %96
  %98 = load i32, i32* %5, align 4
  %99 = add nsw i32 %98, 1
  store i32 %99, i32* %5, align 4
  br label %79

100:                                              ; preds = %90, %79
  store i32 0, i32* %5, align 4
  br label %101

101:                                              ; preds = %119, %100
  %102 = load i32, i32* %5, align 4
  %103 = load i32, i32* %2, align 4
  %104 = icmp slt i32 %102, %103
  br i1 %104, label %105, label %122

105:                                              ; preds = %101
  %106 = load i32, i32* %7, align 4
  %107 = load i32, i32* %5, align 4
  %108 = sext i32 %107 to i64
  %109 = getelementptr inbounds [200 x i32], [200 x i32]* %3, i64 0, i64 %108
  %110 = load i32, i32* %109, align 4
  %111 = icmp eq i32 %106, %110
  br i1 %111, label %112, label %118

112:                                              ; preds = %105
  %113 = load i32, i32* %5, align 4
  %114 = sext i32 %113 to i64
  %115 = getelementptr inbounds [200 x [200 x i8]], [200 x [200 x i8]]* %4, i64 0, i64 %114
  %116 = getelementptr inbounds [200 x i8], [200 x i8]* %115, i64 0, i64 0
  %117 = call i32 (i8*, ...) @printf(i8* getelementptr inbounds ([4 x i8], [4 x i8]* @.str.3, i64 0, i64 0), i8* %116)
  br label %122

118:                                              ; preds = %105
  br label %119

119:                                              ; preds = %118
  %120 = load i32, i32* %5, align 4
  %121 = add nsw i32 %120, 1
  store i32 %121, i32* %5, align 4
  br label %101

122:                                              ; preds = %112, %101
  br label %123

123:                                              ; preds = %122, %72
  ret i32 0
}

declare dso_local i32 @__isoc99_scanf(i8*, ...) #1

; Function Attrs: nounwind readonly
declare dso_local i64 @strlen(i8*) #2

declare dso_local i32 @printf(i8*, ...) #1


!llvm.module.flags = !{!0}
!llvm.ident = !{!1}

!0 = !{i32 1, !"wchar_size", i32 4}
!1 = !{!"clang version 10.0.0-4ubuntu1 "}
